	.file	"gd32vf103_eclic.c"
	.option nopic
	.text
.Ltext0:
	.cfi_sections	.debug_frame
	.align	1
	.globl	eclic_global_interrupt_enable
	.type	eclic_global_interrupt_enable, @function
eclic_global_interrupt_enable:
.LFB2:
	.file 1 "D:\\rt-thread\\bsp\\gd32\\risc-v\\libraries\\GD32VF103_Firmware_Library\\GD32VF103_standard_peripheral\\Source\\gd32vf103_eclic.c"
	.loc 1 49 1
	.cfi_startproc
	addi	sp,sp,-32
	.cfi_def_cfa_offset 32
	sw	s0,28(sp)
	.cfi_offset 8, -4
	addi	s0,sp,32
	.cfi_def_cfa 8, 0
.LBB2:
	.loc 1 51 103
 #APP
# 51 "D:\rt-thread\bsp\gd32\risc-v\libraries\GD32VF103_Firmware_Library\GD32VF103_standard_peripheral\Source\gd32vf103_eclic.c" 1
	csrrs a5, mstatus, 8
# 0 "" 2
 #NO_APP
	sw	a5,-20(s0)
.LBE2:
	.loc 1 52 1
	nop
	lw	s0,28(sp)
	.cfi_restore 8
	.cfi_def_cfa 2, 32
	addi	sp,sp,32
	.cfi_def_cfa_offset 0
	jr	ra
	.cfi_endproc
.LFE2:
	.size	eclic_global_interrupt_enable, .-eclic_global_interrupt_enable
	.align	1
	.globl	eclic_global_interrupt_disable
	.type	eclic_global_interrupt_disable, @function
eclic_global_interrupt_disable:
.LFB3:
	.loc 1 61 1
	.cfi_startproc
	addi	sp,sp,-32
	.cfi_def_cfa_offset 32
	sw	s0,28(sp)
	.cfi_offset 8, -4
	addi	s0,sp,32
	.cfi_def_cfa 8, 0
.LBB3:
	.loc 1 63 103
 #APP
# 63 "D:\rt-thread\bsp\gd32\risc-v\libraries\GD32VF103_Firmware_Library\GD32VF103_standard_peripheral\Source\gd32vf103_eclic.c" 1
	csrrc a5, mstatus, 8
# 0 "" 2
 #NO_APP
	sw	a5,-20(s0)
.LBE3:
	.loc 1 64 1
	nop
	lw	s0,28(sp)
	.cfi_restore 8
	.cfi_def_cfa 2, 32
	addi	sp,sp,32
	.cfi_def_cfa_offset 0
	jr	ra
	.cfi_endproc
.LFE3:
	.size	eclic_global_interrupt_disable, .-eclic_global_interrupt_disable
	.align	1
	.globl	eclic_priority_group_set
	.type	eclic_priority_group_set, @function
eclic_priority_group_set:
.LFB4:
	.loc 1 78 1
	.cfi_startproc
	addi	sp,sp,-32
	.cfi_def_cfa_offset 32
	sw	ra,28(sp)
	sw	s0,24(sp)
	.cfi_offset 1, -4
	.cfi_offset 8, -8
	addi	s0,sp,32
	.cfi_def_cfa 8, 0
	mv	a5,a0
	sb	a5,-17(s0)
	.loc 1 79 5
	lbu	a5,-17(s0)
	mv	a0,a5
	call	eclic_set_nlbits
	.loc 1 80 1
	nop
	lw	ra,28(sp)
	.cfi_restore 1
	lw	s0,24(sp)
	.cfi_restore 8
	.cfi_def_cfa 2, 32
	addi	sp,sp,32
	.cfi_def_cfa_offset 0
	jr	ra
	.cfi_endproc
.LFE4:
	.size	eclic_priority_group_set, .-eclic_priority_group_set
	.align	1
	.globl	eclic_irq_enable
	.type	eclic_irq_enable, @function
eclic_irq_enable:
.LFB5:
	.loc 1 91 1
	.cfi_startproc
	addi	sp,sp,-32
	.cfi_def_cfa_offset 32
	sw	ra,28(sp)
	sw	s0,24(sp)
	.cfi_offset 1, -4
	.cfi_offset 8, -8
	addi	s0,sp,32
	.cfi_def_cfa 8, 0
	sw	a0,-20(s0)
	mv	a5,a1
	mv	a4,a2
	sb	a5,-21(s0)
	mv	a5,a4
	sb	a5,-22(s0)
	.loc 1 92 5
	lw	a0,-20(s0)
	call	eclic_enable_interrupt
	.loc 1 93 5
	lbu	a5,-21(s0)
	mv	a1,a5
	lw	a0,-20(s0)
	call	eclic_set_irq_lvl_abs
	.loc 1 94 5
	lbu	a5,-22(s0)
	mv	a1,a5
	lw	a0,-20(s0)
	call	eclic_set_irq_priority
	.loc 1 95 1
	nop
	lw	ra,28(sp)
	.cfi_restore 1
	lw	s0,24(sp)
	.cfi_restore 8
	.cfi_def_cfa 2, 32
	addi	sp,sp,32
	.cfi_def_cfa_offset 0
	jr	ra
	.cfi_endproc
.LFE5:
	.size	eclic_irq_enable, .-eclic_irq_enable
	.align	1
	.globl	eclic_irq_disable
	.type	eclic_irq_disable, @function
eclic_irq_disable:
.LFB6:
	.loc 1 104 1
	.cfi_startproc
	addi	sp,sp,-32
	.cfi_def_cfa_offset 32
	sw	ra,28(sp)
	sw	s0,24(sp)
	.cfi_offset 1, -4
	.cfi_offset 8, -8
	addi	s0,sp,32
	.cfi_def_cfa 8, 0
	sw	a0,-20(s0)
	.loc 1 105 5
	lw	a0,-20(s0)
	call	eclic_disable_interrupt
	.loc 1 106 1
	nop
	lw	ra,28(sp)
	.cfi_restore 1
	lw	s0,24(sp)
	.cfi_restore 8
	.cfi_def_cfa 2, 32
	addi	sp,sp,32
	.cfi_def_cfa_offset 0
	jr	ra
	.cfi_endproc
.LFE6:
	.size	eclic_irq_disable, .-eclic_irq_disable
	.align	1
	.globl	eclic_system_reset
	.type	eclic_system_reset, @function
eclic_system_reset:
.LFB7:
	.loc 1 115 1
	.cfi_startproc
	addi	sp,sp,-16
	.cfi_def_cfa_offset 16
	sw	s0,12(sp)
	.cfi_offset 8, -4
	addi	s0,sp,16
	.cfi_def_cfa 8, 0
	.loc 1 116 6
	li	a5,-536600576
	addi	a5,a5,12
	.loc 1 116 65
	li	a4,1264218112
	addi	a4,a4,-1672
	sw	a4,0(a5)
	.loc 1 117 6
	li	a5,-536600576
	addi	a5,a5,8
	.loc 1 117 65
	li	a4,1
	sw	a4,0(a5)
	.loc 1 118 1
	nop
	lw	s0,12(sp)
	.cfi_restore 8
	.cfi_def_cfa 2, 16
	addi	sp,sp,16
	.cfi_def_cfa_offset 0
	jr	ra
	.cfi_endproc
.LFE7:
	.size	eclic_system_reset, .-eclic_system_reset
	.align	1
	.globl	eclic_send_event
	.type	eclic_send_event, @function
eclic_send_event:
.LFB8:
	.loc 1 127 1
	.cfi_startproc
	addi	sp,sp,-32
	.cfi_def_cfa_offset 32
	sw	s0,28(sp)
	.cfi_offset 8, -4
	addi	s0,sp,32
	.cfi_def_cfa 8, 0
.LBB4:
	.loc 1 128 91
 #APP
# 128 "D:\rt-thread\bsp\gd32\risc-v\libraries\GD32VF103_Firmware_Library\GD32VF103_standard_peripheral\Source\gd32vf103_eclic.c" 1
	csrrs a5, 0x812U, 1
# 0 "" 2
 #NO_APP
	sw	a5,-20(s0)
.LBE4:
	.loc 1 129 1
	nop
	lw	s0,28(sp)
	.cfi_restore 8
	.cfi_def_cfa 2, 32
	addi	sp,sp,32
	.cfi_def_cfa_offset 0
	jr	ra
	.cfi_endproc
.LFE8:
	.size	eclic_send_event, .-eclic_send_event
.Letext0:
	.file 2 "d:\\gcc\\xpack-riscv-none-embed-gcc-10.2.0-1.2\\riscv-none-embed\\include\\machine\\_default_types.h"
	.file 3 "d:\\gcc\\xpack-riscv-none-embed-gcc-10.2.0-1.2\\riscv-none-embed\\include\\sys\\_stdint.h"