	.file	"handlers.c"
	.option nopic
	.text
.Ltext0:
	.cfi_sections	.debug_frame
	.section	.rodata
	.align	2
.LC0:
	.string	"nmi\n"
	.text
	.align	1
	.weak	handle_nmi
	.type	handle_nmi, @function
handle_nmi:
.LFB5:
	.file 1 "D:\\rt-thread\\bsp\\gd32\\risc-v\\libraries\\GD32VF103_Firmware_Library\\RISCV\\env_Eclipse\\handlers.c"
	.loc 1 9 1
	.cfi_startproc
	addi	sp,sp,-16
	.cfi_def_cfa_offset 16
	sw	ra,12(sp)
	sw	s0,8(sp)
	.cfi_offset 1, -4
	.cfi_offset 8, -8
	addi	s0,sp,16
	.cfi_def_cfa 8, 0
	.loc 1 10 3
	li	a2,5
	lla	a1,.LC0
	li	a0,1
	call	write
	.loc 1 12 10
	li	a5,0
	.loc 1 13 1
	mv	a0,a5
	lw	ra,12(sp)
	.cfi_restore 1
	lw	s0,8(sp)
	.cfi_restore 8
	.cfi_def_cfa 2, 16
	addi	sp,sp,16
	.cfi_def_cfa_offset 0
	jr	ra
	.cfi_endproc
.LFE5:
	.size	handle_nmi, .-handle_nmi
	.section	.rodata
	.align	2
.LC1:
	.string	"trap\n"
	.text
	.align	1
	.weak	handle_trap
	.type	handle_trap, @function
handle_trap:
.LFB6:
	.loc 1 17 1
	.cfi_startproc
	addi	sp,sp,-32
	.cfi_def_cfa_offset 32
	sw	ra,28(sp)
	sw	s0,24(sp)
	.cfi_offset 1, -4
	.cfi_offset 8, -8
	addi	s0,sp,32
	.cfi_def_cfa 8, 0
	sw	a0,-20(s0)
	sw	a1,-24(s0)
	.loc 1 18 14
	lw	a4,-20(s0)
	li	a5,4096
	addi	a5,a5,-1
	and	a4,a4,a5
	.loc 1 18 5
	li	a5,4096
	addi	a5,a5,-1
	bne	a4,a5,.L4
	.loc 1 19 7
	call	handle_nmi
.L4:
	.loc 1 21 3
	li	a2,5
	lla	a1,.LC1
	li	a0,1
	call	write
	.loc 1 26 10
	li	a5,0
	.loc 1 27 1
	mv	a0,a5
	lw	ra,28(sp)
	.cfi_restore 1
	lw	s0,24(sp)
	.cfi_restore 8
	.cfi_def_cfa 2, 32
	addi	sp,sp,32
	.cfi_def_cfa_offset 0
	jr	ra
	.cfi_endproc
.LFE6:
	.size	handle_trap, .-handle_trap
.Letext0:
	.file 2 "d:\\gcc\\xpack-riscv-none-embed-gcc-10.2.0-1.2\\riscv-none-embed\\include\\machine\\_default_types.h"
	.file 3 "d:\\gcc\\xpack-riscv-none-embed-gcc-10.2.0-1.2\\riscv-none-embed\\include\\sys\\_stdint.h"