	.file	"your_printf.c"
	.option nopic
	.text
.Ltext0:
	.cfi_sections	.debug_frame
	.align	1
	.globl	__wrap_printf
	.type	__wrap_printf, @function
__wrap_printf:
.LFB0:
	.file 1 "D:\\rt-thread\\bsp\\gd32\\risc-v\\libraries\\GD32VF103_Firmware_Library\\RISCV\\env_Eclipse\\your_printf.c"
	.loc 1 2 1
	.cfi_startproc
	addi	sp,sp,-64
	.cfi_def_cfa_offset 64
	sw	s0,28(sp)
	.cfi_offset 8, -36
	addi	s0,sp,32
	.cfi_def_cfa 8, 32
	sw	a0,-20(s0)
	sw	a1,4(s0)
	sw	a2,8(s0)
	sw	a3,12(s0)
	sw	a4,16(s0)
	sw	a5,20(s0)
	sw	a6,24(s0)
	sw	a7,28(s0)
	.loc 1 4 1
	nop
	mv	a0,a5
	lw	s0,28(sp)
	.cfi_restore 8
	.cfi_def_cfa 2, 64
	addi	sp,sp,64
	.cfi_def_cfa_offset 0
	jr	ra
	.cfi_endproc
.LFE0:
	.size	__wrap_printf, .-__wrap_printf
.Letext0: