	.file	"drv_gpio.c"
	.option nopic
	.text
.Ltext0:
	.cfi_sections	.debug_frame
	.align	1
	.type	NVIC_EnableIRQ, @function
NVIC_EnableIRQ:
.LFB21:
	.file 1 "E:\\RT-Thread\\rt-thread\\bsp\\wch\\risc-v\\Libraries\\ch32v20x_libraries\\bmsis\\include/core_riscv.h"
	.loc 1 131 50
	.cfi_startproc
	addi	sp,sp,-32
	.cfi_def_cfa_offset 32
	sw	s0,28(sp)
	.cfi_offset 8, -4
	addi	s0,sp,32
	.cfi_def_cfa 8, 0
	sw	a0,-20(s0)
	.loc 1 132 88
	lw	a5,-20(s0)
	andi	a5,a5,31
	.loc 1 132 67
	li	a4,1
	sll	a3,a4,a5
	.loc 1 132 30
	li	a4,-536813568
	.loc 1 132 55
	lw	a5,-20(s0)
	srli	a5,a5,5
	.loc 1 132 62
	addi	a5,a5,64
	slli	a5,a5,2
	add	a5,a4,a5
	sw	a3,0(a5)
	.loc 1 133 1
	nop
	lw	s0,28(sp)
	.cfi_restore 8
	addi	sp,sp,32
	.cfi_def_cfa_register 2
	jr	ra
	.cfi_endproc
.LFE21:
	.size	NVIC_EnableIRQ, .-NVIC_EnableIRQ
	.align	1
	.type	NVIC_DisableIRQ, @function
NVIC_DisableIRQ:
.LFB22:
	.loc 1 142 1
	.cfi_startproc
	addi	sp,sp,-32
	.cfi_def_cfa_offset 32
	sw	s0,28(sp)
	.cfi_offset 8, -4
	addi	s0,sp,32
	.cfi_def_cfa 8, 0
	sw	a0,-20(s0)
	.loc 1 143 88
	lw	a5,-20(s0)
	andi	a5,a5,31
	.loc 1 143 67
	li	a4,1
	sll	a3,a4,a5
	.loc 1 143 30
	li	a4,-536813568
	.loc 1 143 55
	lw	a5,-20(s0)
	srli	a5,a5,5
	.loc 1 143 62
	addi	a5,a5,96
	slli	a5,a5,2
	add	a5,a4,a5
	sw	a3,0(a5)
	.loc 1 144 1
	nop
	lw	s0,28(sp)
	.cfi_restore 8
	addi	sp,sp,32
	.cfi_def_cfa_register 2
	jr	ra
	.cfi_endproc
.LFE22:
	.size	NVIC_DisableIRQ, .-NVIC_DisableIRQ
	.align	1
	.type	NVIC_SetPriority, @function
NVIC_SetPriority:
.LFB28:
	.loc 1 213 1
	.cfi_startproc
	addi	sp,sp,-32
	.cfi_def_cfa_offset 32
	sw	s0,28(sp)
	.cfi_offset 8, -4
	addi	s0,sp,32
	.cfi_def_cfa 8, 0
	sw	a0,-20(s0)
	mv	a5,a1
	sb	a5,-21(s0)
	.loc 1 214 30
	li	a4,-536813568
	.loc 1 214 57
	lw	a5,-20(s0)
	add	a5,a4,a5
	lbu	a4,-21(s0)
	sb	a4,1024(a5)
	.loc 1 215 1
	nop
	lw	s0,28(sp)
	.cfi_restore 8
	addi	sp,sp,32
	.cfi_def_cfa_register 2
	jr	ra
	.cfi_endproc
.LFE28:
	.size	NVIC_SetPriority, .-NVIC_SetPriority
	.align	1
	.type	GPIOA_CLK_ENABLE, @function
GPIOA_CLK_ENABLE:
.LFB36:
	.file 2 "E:\\RT-Thread\\rt-thread\\bsp\\wch\\risc-v\\Libraries\\ch32v2x_drivers\\drv_gpio.c"
	.loc 2 32 1
	.cfi_startproc
	addi	sp,sp,-16
	.cfi_def_cfa_offset 16
	sw	ra,12(sp)
	sw	s0,8(sp)
	.cfi_offset 1, -4
	.cfi_offset 8, -8
	addi	s0,sp,16
	.cfi_def_cfa 8, 0
	.loc 2 33 5
	li	a1,1
	li	a0,4
	call	RCC_APB2PeriphClockCmd
	.loc 2 34 1
	nop
	lw	ra,12(sp)
	.cfi_restore 1
	lw	s0,8(sp)
	.cfi_restore 8
	addi	sp,sp,16
	.cfi_def_cfa_register 2
	jr	ra
	.cfi_endproc
.LFE36:
	.size	GPIOA_CLK_ENABLE, .-GPIOA_CLK_ENABLE
	.align	1
	.type	GPIOB_CLK_ENABLE, @function
GPIOB_CLK_ENABLE:
.LFB37:
	.loc 2 37 1
	.cfi_startproc
	addi	sp,sp,-16
	.cfi_def_cfa_offset 16
	sw	ra,12(sp)
	sw	s0,8(sp)
	.cfi_offset 1, -4
	.cfi_offset 8, -8
	addi	s0,sp,16
	.cfi_def_cfa 8, 0
	.loc 2 38 5
	li	a1,1
	li	a0,8
	call	RCC_APB2PeriphClockCmd
	.loc 2 39 1
	nop
	lw	ra,12(sp)
	.cfi_restore 1
	lw	s0,8(sp)
	.cfi_restore 8
	addi	sp,sp,16
	.cfi_def_cfa_register 2
	jr	ra
	.cfi_endproc
.LFE37:
	.size	GPIOB_CLK_ENABLE, .-GPIOB_CLK_ENABLE
	.align	1
	.type	GPIOC_CLK_ENABLE, @function
GPIOC_CLK_ENABLE:
.LFB38:
	.loc 2 43 1
	.cfi_startproc
	addi	sp,sp,-16
	.cfi_def_cfa_offset 16
	sw	ra,12(sp)
	sw	s0,8(sp)
	.cfi_offset 1, -4
	.cfi_offset 8, -8
	addi	s0,sp,16
	.cfi_def_cfa 8, 0
	.loc 2 44 5
	li	a1,1
	li	a0,16
	call	RCC_APB2PeriphClockCmd
	.loc 2 45 1
	nop
	lw	ra,12(sp)
	.cfi_restore 1
	lw	s0,8(sp)
	.cfi_restore 8
	addi	sp,sp,16
	.cfi_def_cfa_register 2
	jr	ra
	.cfi_endproc
.LFE38:
	.size	GPIOC_CLK_ENABLE, .-GPIOC_CLK_ENABLE
	.align	1
	.type	GPIOD_CLK_ENABLE, @function
GPIOD_CLK_ENABLE:
.LFB39:
	.loc 2 50 1
	.cfi_startproc
	addi	sp,sp,-16
	.cfi_def_cfa_offset 16
	sw	ra,12(sp)
	sw	s0,8(sp)
	.cfi_offset 1, -4
	.cfi_offset 8, -8
	addi	s0,sp,16
	.cfi_def_cfa 8, 0
	.loc 2 51 5
	li	a1,1
	li	a0,32
	call	RCC_APB2PeriphClockCmd
	.loc 2 52 1
	nop
	lw	ra,12(sp)
	.cfi_restore 1
	lw	s0,8(sp)
	.cfi_restore 8
	addi	sp,sp,16
	.cfi_def_cfa_register 2
	jr	ra
	.cfi_endproc
.LFE39:
	.size	GPIOD_CLK_ENABLE, .-GPIOD_CLK_ENABLE
	.section	.rodata
	.align	2
	.type	pins, @object
	.size	pins, 1040
pins:
	.word	-1
	.word	0
	.word	0
	.word	0
	.word	-1
	.word	0
	.word	0
	.word	0
	.word	2
	.word	GPIOC_CLK_ENABLE
	.word	1073811456
	.word	8192
	.word	3
	.word	GPIOC_CLK_ENABLE
	.word	1073811456
	.word	16384
	.word	4
	.word	GPIOC_CLK_ENABLE
	.word	1073811456
	.word	32768
	.word	5
	.word	GPIOD_CLK_ENABLE
	.word	1073812480
	.word	1
	.word	6
	.word	GPIOD_CLK_ENABLE
	.word	1073812480
	.word	2
	.word	-1
	.word	0
	.word	0
	.word	0
	.word	8
	.word	GPIOC_CLK_ENABLE
	.word	1073811456
	.word	1
	.word	9
	.word	GPIOC_CLK_ENABLE
	.word	1073811456
	.word	2
	.word	10
	.word	GPIOC_CLK_ENABLE
	.word	1073811456
	.word	4
	.word	11
	.word	GPIOC_CLK_ENABLE
	.word	1073811456
	.word	8
	.word	-1
	.word	0
	.word	0
	.word	0
	.word	-1
	.word	0
	.word	0
	.word	0
	.word	14
	.word	GPIOA_CLK_ENABLE
	.word	1073809408
	.word	1
	.word	15
	.word	GPIOA_CLK_ENABLE
	.word	1073809408
	.word	2
	.word	16
	.word	GPIOA_CLK_ENABLE
	.word	1073809408
	.word	4
	.word	17
	.word	GPIOA_CLK_ENABLE
	.word	1073809408
	.word	8
	.word	-1
	.word	0
	.word	0
	.word	0
	.word	-1
	.word	0
	.word	0
	.word	0
	.word	20
	.word	GPIOA_CLK_ENABLE
	.word	1073809408
	.word	16
	.word	21
	.word	GPIOA_CLK_ENABLE
	.word	1073809408
	.word	32
	.word	22
	.word	GPIOA_CLK_ENABLE
	.word	1073809408
	.word	64
	.word	23
	.word	GPIOA_CLK_ENABLE
	.word	1073809408
	.word	128
	.word	24
	.word	GPIOC_CLK_ENABLE
	.word	1073811456
	.word	16
	.word	25
	.word	GPIOC_CLK_ENABLE
	.word	1073811456
	.word	32
	.word	26
	.word	GPIOB_CLK_ENABLE
	.word	1073810432
	.word	1
	.word	27
	.word	GPIOB_CLK_ENABLE
	.word	1073810432
	.word	2
	.word	28
	.word	GPIOB_CLK_ENABLE
	.word	1073810432
	.word	4
	.word	29
	.word	GPIOB_CLK_ENABLE
	.word	1073810432
	.word	1024
	.word	30
	.word	GPIOB_CLK_ENABLE
	.word	1073810432
	.word	2048
	.word	-1
	.word	0
	.word	0
	.word	0
	.word	-1
	.word	0
	.word	0
	.word	0
	.word	33
	.word	GPIOB_CLK_ENABLE
	.word	1073810432
	.word	4096
	.word	34
	.word	GPIOB_CLK_ENABLE
	.word	1073810432
	.word	8192
	.word	35
	.word	GPIOB_CLK_ENABLE
	.word	1073810432
	.word	16384
	.word	36
	.word	GPIOB_CLK_ENABLE
	.word	1073810432
	.word	32768
	.word	37
	.word	GPIOC_CLK_ENABLE
	.word	1073811456
	.word	64
	.word	38
	.word	GPIOC_CLK_ENABLE
	.word	1073811456
	.word	128
	.word	39
	.word	GPIOC_CLK_ENABLE
	.word	1073811456
	.word	256
	.word	40
	.word	GPIOC_CLK_ENABLE
	.word	1073811456
	.word	512
	.word	41
	.word	GPIOA_CLK_ENABLE
	.word	1073809408
	.word	256
	.word	42
	.word	GPIOA_CLK_ENABLE
	.word	1073809408
	.word	512
	.word	43
	.word	GPIOA_CLK_ENABLE
	.word	1073809408
	.word	1024
	.word	44
	.word	GPIOA_CLK_ENABLE
	.word	1073809408
	.word	2048
	.word	45
	.word	GPIOA_CLK_ENABLE
	.word	1073809408
	.word	4096
	.word	46
	.word	GPIOA_CLK_ENABLE
	.word	1073809408
	.word	8192
	.word	-1
	.word	0
	.word	0
	.word	0
	.word	-1
	.word	0
	.word	0
	.word	0
	.word	49
	.word	GPIOA_CLK_ENABLE
	.word	1073809408
	.word	16384
	.word	50
	.word	GPIOA_CLK_ENABLE
	.word	1073809408
	.word	32768
	.word	51
	.word	GPIOC_CLK_ENABLE
	.word	1073811456
	.word	1024
	.word	52
	.word	GPIOC_CLK_ENABLE
	.word	1073811456
	.word	2048
	.word	53
	.word	GPIOC_CLK_ENABLE
	.word	1073811456
	.word	4096
	.word	54
	.word	GPIOD_CLK_ENABLE
	.word	1073812480
	.word	4
	.word	55
	.word	GPIOB_CLK_ENABLE
	.word	1073810432
	.word	8
	.word	56
	.word	GPIOB_CLK_ENABLE
	.word	1073810432
	.word	16
	.word	57
	.word	GPIOB_CLK_ENABLE
	.word	1073810432
	.word	32
	.word	58
	.word	GPIOB_CLK_ENABLE
	.word	1073810432
	.word	64
	.word	59
	.word	GPIOB_CLK_ENABLE
	.word	1073810432
	.word	128
	.word	-1
	.word	0
	.word	0
	.word	0
	.word	61
	.word	GPIOB_CLK_ENABLE
	.word	1073810432
	.word	256
	.word	62
	.word	GPIOB_CLK_ENABLE
	.word	1073810432
	.word	512
	.word	-1
	.word	0
	.word	0
	.word	0
	.word	-1
	.word	0
	.word	0
	.word	0
	.align	2
	.type	pin_irq_map, @object
	.size	pin_irq_map, 128
pin_irq_map:
	.half	1
	.zero	2
	.word	22
	.half	2
	.zero	2
	.word	23
	.half	4
	.zero	2
	.word	24
	.half	8
	.zero	2
	.word	25
	.half	16
	.zero	2
	.word	26
	.half	32
	.zero	2
	.word	39
	.half	64
	.zero	2
	.word	39
	.half	128
	.zero	2
	.word	39
	.half	256
	.zero	2
	.word	39
	.half	512
	.zero	2
	.word	39
	.half	1024
	.zero	2
	.word	56
	.half	2048
	.zero	2
	.word	56
	.half	4096
	.zero	2
	.word	56
	.half	8192
	.zero	2
	.word	56
	.half	16384
	.zero	2
	.word	56
	.half	-32768
	.zero	2
	.word	56
	.globl	pin_irq_hdr_tab
	.data
	.align	2
	.type	pin_irq_hdr_tab, @object
	.size	pin_irq_hdr_tab, 192
pin_irq_hdr_tab:
	.half	-1
	.half	0
	.word	0
	.word	0
	.half	-1
	.half	0
	.word	0
	.word	0
	.half	-1
	.half	0
	.word	0
	.word	0
	.half	-1
	.half	0
	.word	0
	.word	0
	.half	-1
	.half	0
	.word	0
	.word	0
	.half	-1
	.half	0
	.word	0
	.word	0
	.half	-1
	.half	0
	.word	0
	.word	0
	.half	-1
	.half	0
	.word	0
	.word	0
	.half	-1
	.half	0
	.word	0
	.word	0
	.half	-1
	.half	0
	.word	0
	.word	0
	.half	-1
	.half	0
	.word	0
	.word	0
	.half	-1
	.half	0
	.word	0
	.word	0
	.half	-1
	.half	0
	.word	0
	.word	0
	.half	-1
	.half	0
	.word	0
	.word	0
	.half	-1
	.half	0
	.word	0
	.word	0
	.half	-1
	.half	0
	.word	0
	.word	0
	.text
	.align	1
	.globl	get_pin
	.type	get_pin, @function
get_pin:
.LFB40:
	.loc 2 345 1
	.cfi_startproc
	addi	sp,sp,-48
	.cfi_def_cfa_offset 48
	sw	s0,44(sp)
	.cfi_offset 8, -4
	addi	s0,sp,48
	.cfi_def_cfa 8, 0
	mv	a5,a0
	sb	a5,-33(s0)
	.loc 2 347 8
	lbu	a4,-33(s0)
	li	a5,64
	bgtu	a4,a5,.L9
	.loc 2 349 22
	lbu	a5,-33(s0)
	.loc 2 349 15
	slli	a4,a5,4
	lla	a5,pins
	add	a5,a4,a5
	sw	a5,-20(s0)
	.loc 2 350 18
	lw	a5,-20(s0)
	lw	a4,0(a5)
	.loc 2 350 12
	li	a5,-1
	bne	a4,a5,.L11
	.loc 2 351 19
	sw	zero,-20(s0)
	j	.L11
.L9:
	.loc 2 355 15
	sw	zero,-20(s0)
.L11:
	.loc 2 357 12
	lw	a5,-20(s0)
	.loc 2 358 1
	mv	a0,a5
	lw	s0,44(sp)
	.cfi_restore 8
	addi	sp,sp,48
	.cfi_def_cfa_register 2
	jr	ra
	.cfi_endproc
.LFE40:
	.size	get_pin, .-get_pin
	.align	1
	.globl	ch32_pin_write
	.type	ch32_pin_write, @function
ch32_pin_write:
.LFB41:
	.loc 2 361 1
	.cfi_startproc
	addi	sp,sp,-48
	.cfi_def_cfa_offset 48
	sw	ra,44(sp)
	sw	s0,40(sp)
	.cfi_offset 1, -4
	.cfi_offset 8, -8
	addi	s0,sp,48
	.cfi_def_cfa 8, 0
	sw	a0,-36(s0)
	sw	a1,-40(s0)
	sw	a2,-44(s0)
	.loc 2 363 13
	lw	a5,-40(s0)
	andi	a5,a5,0xff
	mv	a0,a5
	call	get_pin
	sw	a0,-20(s0)
	.loc 2 364 8
	lw	a5,-20(s0)
	beqz	a5,.L16
	.loc 2 368 5
	lw	a5,-20(s0)
	lw	a4,8(a5)
	.loc 2 368 37
	lw	a5,-20(s0)
	lw	a5,12(a5)
	.loc 2 368 5
	slli	a5,a5,16
	srli	a5,a5,16
	lw	a3,-44(s0)
	mv	a2,a3
	mv	a1,a5
	mv	a0,a4
	call	GPIO_WriteBit
	j	.L13
.L16:
	.loc 2 366 9
	nop
.L13:
	.loc 2 369 1
	lw	ra,44(sp)
	.cfi_restore 1
	lw	s0,40(sp)
	.cfi_restore 8
	addi	sp,sp,48
	.cfi_def_cfa_register 2
	jr	ra
	.cfi_endproc
.LFE41:
	.size	ch32_pin_write, .-ch32_pin_write
	.align	1
	.globl	ch32_pin_read
	.type	ch32_pin_read, @function
ch32_pin_read:
.LFB42:
	.loc 2 372 1
	.cfi_startproc
	addi	sp,sp,-48
	.cfi_def_cfa_offset 48
	sw	ra,44(sp)
	sw	s0,40(sp)
	.cfi_offset 1, -4
	.cfi_offset 8, -8
	addi	s0,sp,48
	.cfi_def_cfa 8, 0
	sw	a0,-36(s0)
	sw	a1,-40(s0)
	.loc 2 375 11
	sw	zero,-20(s0)
	.loc 2 376 13
	lw	a5,-40(s0)
	andi	a5,a5,0xff
	mv	a0,a5
	call	get_pin
	sw	a0,-24(s0)
	.loc 2 377 8
	lw	a5,-24(s0)
	bnez	a5,.L18
	.loc 2 379 16
	lw	a5,-20(s0)
	j	.L19
.L18:
	.loc 2 381 13
	lw	a5,-24(s0)
	lw	a4,8(a5)
	.loc 2 381 53
	lw	a5,-24(s0)
	lw	a5,12(a5)
	.loc 2 381 13
	slli	a5,a5,16
	srli	a5,a5,16
	mv	a1,a5
	mv	a0,a4
	call	GPIO_ReadInputDataBit
	mv	a5,a0
	.loc 2 381 11
	sw	a5,-20(s0)
	.loc 2 382 12
	lw	a5,-20(s0)
.L19:
	.loc 2 383 1
	mv	a0,a5
	lw	ra,44(sp)
	.cfi_restore 1
	lw	s0,40(sp)
	.cfi_restore 8
	addi	sp,sp,48
	.cfi_def_cfa_register 2
	jr	ra
	.cfi_endproc
.LFE42:
	.size	ch32_pin_read, .-ch32_pin_read
	.section	.rodata
	.align	2
.LC0:
	.string	"get pin index\r\n"
	.text
	.align	1
	.globl	ch32_pin_mode
	.type	ch32_pin_mode, @function
ch32_pin_mode:
.LFB43:
	.loc 2 386 1
	.cfi_startproc
	addi	sp,sp,-48
	.cfi_def_cfa_offset 48
	sw	ra,44(sp)
	sw	s0,40(sp)
	.cfi_offset 1, -4
	.cfi_offset 8, -8
	addi	s0,sp,48
	.cfi_def_cfa 8, 0
	sw	a0,-36(s0)
	sw	a1,-40(s0)
	sw	a2,-44(s0)
	.loc 2 389 13
	lw	a5,-40(s0)
	andi	a5,a5,0xff
	mv	a0,a5
	call	get_pin
	sw	a0,-20(s0)
	.loc 2 390 8
	lw	a5,-20(s0)
	beqz	a5,.L31
	.loc 2 394 5
	lla	a0,.LC0
	call	rt_kprintf
	.loc 2 396 10
	lw	a5,-20(s0)
	lw	a5,4(a5)
	.loc 2 396 5
	jalr	a5
.LVL0:
	.loc 2 398 37
	lw	a5,-20(s0)
	lw	a5,12(a5)
	.loc 2 398 30
	slli	a5,a5,16
	srli	a5,a5,16
	sh	a5,-32(s0)
	.loc 2 399 31
	li	a5,16
	sw	a5,-24(s0)
	.loc 2 400 32
	li	a5,3
	sw	a5,-28(s0)
	.loc 2 401 8
	lw	a5,-44(s0)
	bnez	a5,.L23
	.loc 2 404 35
	li	a5,16
	sw	a5,-24(s0)
	j	.L24
.L23:
	.loc 2 406 13
	lw	a4,-44(s0)
	li	a5,5
	bne	a4,a5,.L25
	.loc 2 409 35
	sw	zero,-24(s0)
	j	.L24
.L25:
	.loc 2 411 13
	lw	a4,-44(s0)
	li	a5,1
	bne	a4,a5,.L26
	.loc 2 414 35
	li	a5,4
	sw	a5,-24(s0)
	j	.L24
.L26:
	.loc 2 416 13
	lw	a4,-44(s0)
	li	a5,3
	bne	a4,a5,.L27
	.loc 2 419 35
	li	a5,40
	sw	a5,-24(s0)
	j	.L24
.L27:
	.loc 2 422 13
	lw	a4,-44(s0)
	li	a5,2
	bne	a4,a5,.L28
	.loc 2 425 35
	li	a5,72
	sw	a5,-24(s0)
	j	.L24
.L28:
	.loc 2 428 13
	lw	a4,-44(s0)
	li	a5,4
	bne	a4,a5,.L29
	.loc 2 430 35
	li	a5,20
	sw	a5,-24(s0)
	j	.L24
.L29:
	.loc 2 432 13
	lw	a4,-44(s0)
	li	a5,6
	bne	a4,a5,.L30
	.loc 2 434 35
	li	a5,28
	sw	a5,-24(s0)
	j	.L24
.L30:
	.loc 2 436 13
	lw	a4,-44(s0)
	li	a5,7
	bne	a4,a5,.L24
	.loc 2 438 35
	li	a5,24
	sw	a5,-24(s0)
.L24:
	.loc 2 441 5
	lw	a5,-20(s0)
	lw	a5,8(a5)
	addi	a4,s0,-32
	mv	a1,a4
	mv	a0,a5
	call	GPIO_Init
	j	.L20
.L31:
	.loc 2 392 9
	nop
.L20:
	.loc 2 442 1
	lw	ra,44(sp)
	.cfi_restore 1
	lw	s0,40(sp)
	.cfi_restore 8
	addi	sp,sp,48
	.cfi_def_cfa_register 2
	jr	ra
	.cfi_endproc
.LFE43:
	.size	ch32_pin_mode, .-ch32_pin_mode
	.align	1
	.type	bit2bitno, @function
bit2bitno:
.LFB44:
	.loc 2 446 1
	.cfi_startproc
	addi	sp,sp,-48
	.cfi_def_cfa_offset 48
	sw	s0,44(sp)
	.cfi_offset 8, -4
	addi	s0,sp,48
	.cfi_def_cfa 8, 0
	sw	a0,-36(s0)
	.loc 2 448 12
	sw	zero,-20(s0)
	.loc 2 448 5
	j	.L33
.L36:
	.loc 2 450 19
	lw	a5,-20(s0)
	li	a4,1
	sll	a4,a4,a5
	.loc 2 450 25
	lw	a5,-36(s0)
	.loc 2 450 12
	bne	a4,a5,.L34
	.loc 2 452 20
	lw	a5,-20(s0)
	j	.L35
.L34:
	.loc 2 448 26 discriminator 2
	lw	a5,-20(s0)
	addi	a5,a5,1
	sw	a5,-20(s0)
.L33:
	.loc 2 448 5 discriminator 1
	lw	a4,-20(s0)
	li	a5,31
	ble	a4,a5,.L36
	.loc 2 455 12
	li	a5,-1
.L35:
	.loc 2 456 1
	mv	a0,a5
	lw	s0,44(sp)
	.cfi_restore 8
	addi	sp,sp,48
	.cfi_def_cfa_register 2
	jr	ra
	.cfi_endproc
.LFE44:
	.size	bit2bitno, .-bit2bitno
	.align	1
	.type	get_pin_irq_map, @function
get_pin_irq_map:
.LFB45:
	.loc 2 459 1
	.cfi_startproc
	addi	sp,sp,-48
	.cfi_def_cfa_offset 48
	sw	ra,44(sp)
	sw	s0,40(sp)
	.cfi_offset 1, -4
	.cfi_offset 8, -8
	addi	s0,sp,48
	.cfi_def_cfa 8, 0
	sw	a0,-36(s0)
	.loc 2 460 27
	lw	a0,-36(s0)
	call	bit2bitno
	sw	a0,-20(s0)
	.loc 2 461 8
	lw	a5,-20(s0)
	bltz	a5,.L38
	.loc 2 461 34 discriminator 1
	lw	a4,-20(s0)
	.loc 2 461 22 discriminator 1
	li	a5,15
	bleu	a4,a5,.L39
.L38:
	.loc 2 463 16
	li	a5,0
	j	.L40
.L39:
	.loc 2 465 12
	lw	a5,-20(s0)
	slli	a4,a5,3
	lla	a5,pin_irq_map
	add	a5,a4,a5
.L40:
	.loc 2 466 1
	mv	a0,a5
	lw	ra,44(sp)
	.cfi_restore 1
	lw	s0,40(sp)
	.cfi_restore 8
	addi	sp,sp,48
	.cfi_def_cfa_register 2
	jr	ra
	.cfi_endproc
.LFE45:
	.size	get_pin_irq_map, .-get_pin_irq_map
	.align	1
	.globl	ch32_pin_attach_irq
	.type	ch32_pin_attach_irq, @function
ch32_pin_attach_irq:
.LFB46:
	.loc 2 469 1
	.cfi_startproc
	addi	sp,sp,-64
	.cfi_def_cfa_offset 64
	sw	ra,60(sp)
	sw	s0,56(sp)
	.cfi_offset 1, -4
	.cfi_offset 8, -8
	addi	s0,sp,64
	.cfi_def_cfa 8, 0
	sw	a0,-36(s0)
	sw	a1,-40(s0)
	sw	a2,-44(s0)
	sw	a3,-48(s0)
	sw	a4,-52(s0)
	.loc 2 472 16
	li	a5,-1
	sw	a5,-20(s0)
	.loc 2 473 13
	lw	a5,-40(s0)
	andi	a5,a5,0xff
	mv	a0,a5
	call	get_pin
	sw	a0,-24(s0)
	.loc 2 474 8
	lw	a5,-24(s0)
	bnez	a5,.L42
	.loc 2 476 16
	li	a5,6
	j	.L43
.L42:
	.loc 2 478 16
	lw	a5,-24(s0)
	lw	a5,12(a5)
	mv	a0,a5
	call	bit2bitno
	sw	a0,-20(s0)
	.loc 2 479 8
	lw	a5,-20(s0)
	bltz	a5,.L44
	.loc 2 479 34 discriminator 1
	lw	a4,-20(s0)
	.loc 2 479 22 discriminator 1
	li	a5,15
	bleu	a4,a5,.L45
.L44:
	.loc 2 481 16
	li	a5,6
	j	.L43
.L45:
	.loc 2 483 13
	call	rt_hw_interrupt_disable
	sw	a0,-28(s0)
	.loc 2 484 34
	lla	a3,pin_irq_hdr_tab
	lw	a4,-20(s0)
	mv	a5,a4
	slli	a5,a5,1
	add	a5,a5,a4
	slli	a5,a5,2
	add	a5,a3,a5
	lh	a5,0(a5)
	mv	a4,a5
	.loc 2 484 8
	lw	a5,-40(s0)
	bne	a5,a4,.L46
	.loc 2 485 38 discriminator 1
	lla	a3,pin_irq_hdr_tab
	lw	a4,-20(s0)
	mv	a5,a4
	slli	a5,a5,1
	add	a5,a5,a4
	slli	a5,a5,2
	add	a5,a3,a5
	lw	a5,4(a5)
	.loc 2 484 46 discriminator 1
	lw	a4,-48(s0)
	bne	a4,a5,.L46
	.loc 2 486 38
	lla	a3,pin_irq_hdr_tab
	lw	a4,-20(s0)
	mv	a5,a4
	slli	a5,a5,1
	add	a5,a5,a4
	slli	a5,a5,2
	add	a5,a3,a5
	lhu	a5,2(a5)
	mv	a4,a5
	.loc 2 485 50
	lw	a5,-44(s0)
	bne	a5,a4,.L46
	.loc 2 487 38
	lla	a3,pin_irq_hdr_tab
	lw	a4,-20(s0)
	mv	a5,a4
	slli	a5,a5,1
	add	a5,a5,a4
	slli	a5,a5,2
	add	a5,a3,a5
	lw	a5,8(a5)
	.loc 2 486 52
	lw	a4,-52(s0)
	bne	a4,a5,.L46
	.loc 2 489 9
	lw	a0,-28(s0)
	call	rt_hw_interrupt_enable
	.loc 2 490 16
	li	a5,0
	j	.L43
.L46:
	.loc 2 492 34
	lla	a3,pin_irq_hdr_tab
	lw	a4,-20(s0)
	mv	a5,a4
	slli	a5,a5,1
	add	a5,a5,a4
	slli	a5,a5,2
	add	a5,a3,a5
	lh	a4,0(a5)
	.loc 2 492 8
	li	a5,-1
	beq	a4,a5,.L47
	.loc 2 494 9
	lw	a0,-28(s0)
	call	rt_hw_interrupt_enable
	.loc 2 495 16
	li	a5,7
	j	.L43
.L47:
	.loc 2 497 35
	lw	a5,-40(s0)
	slli	a3,a5,16
	srai	a3,a3,16
	lla	a2,pin_irq_hdr_tab
	lw	a4,-20(s0)
	mv	a5,a4
	slli	a5,a5,1
	add	a5,a5,a4
	slli	a5,a5,2
	add	a5,a2,a5
	sh	a3,0(a5)
	.loc 2 498 35
	lla	a3,pin_irq_hdr_tab
	lw	a4,-20(s0)
	mv	a5,a4
	slli	a5,a5,1
	add	a5,a5,a4
	slli	a5,a5,2
	add	a5,a3,a5
	lw	a4,-48(s0)
	sw	a4,4(a5)
	.loc 2 499 36
	lw	a5,-44(s0)
	slli	a3,a5,16
	srli	a3,a3,16
	lla	a2,pin_irq_hdr_tab
	lw	a4,-20(s0)
	mv	a5,a4
	slli	a5,a5,1
	add	a5,a5,a4
	slli	a5,a5,2
	add	a5,a2,a5
	sh	a3,2(a5)
	.loc 2 500 36
	lla	a3,pin_irq_hdr_tab
	lw	a4,-20(s0)
	mv	a5,a4
	slli	a5,a5,1
	add	a5,a5,a4
	slli	a5,a5,2
	add	a5,a3,a5
	lw	a4,-52(s0)
	sw	a4,8(a5)
	.loc 2 501 5
	lw	a0,-28(s0)
	call	rt_hw_interrupt_enable
	.loc 2 502 12
	li	a5,0
.L43:
	.loc 2 503 1
	mv	a0,a5
	lw	ra,60(sp)
	.cfi_restore 1
	lw	s0,56(sp)
	.cfi_restore 8
	addi	sp,sp,64
	.cfi_def_cfa_register 2
	jr	ra
	.cfi_endproc
.LFE46:
	.size	ch32_pin_attach_irq, .-ch32_pin_attach_irq
	.align	1
	.globl	ch32_pin_dettach_irq
	.type	ch32_pin_dettach_irq, @function
ch32_pin_dettach_irq:
.LFB47:
	.loc 2 506 1
	.cfi_startproc
	addi	sp,sp,-48
	.cfi_def_cfa_offset 48
	sw	ra,44(sp)
	sw	s0,40(sp)
	.cfi_offset 1, -4
	.cfi_offset 8, -8
	addi	s0,sp,48
	.cfi_def_cfa 8, 0
	sw	a0,-36(s0)
	sw	a1,-40(s0)
	.loc 2 509 16
	li	a5,-1
	sw	a5,-20(s0)
	.loc 2 510 13
	lw	a5,-40(s0)
	andi	a5,a5,0xff
	mv	a0,a5
	call	get_pin
	sw	a0,-24(s0)
	.loc 2 511 8
	lw	a5,-24(s0)
	bnez	a5,.L49
	.loc 2 513 16
	li	a5,6
	j	.L50
.L49:
	.loc 2 515 16
	lw	a5,-24(s0)
	lw	a5,12(a5)
	mv	a0,a5
	call	bit2bitno
	sw	a0,-20(s0)
	.loc 2 516 8
	lw	a5,-20(s0)
	bltz	a5,.L51
	.loc 2 516 34 discriminator 1
	lw	a4,-20(s0)
	.loc 2 516 22 discriminator 1
	li	a5,15
	bleu	a4,a5,.L52
.L51:
	.loc 2 518 16
	li	a5,6
	j	.L50
.L52:
	.loc 2 520 13
	call	rt_hw_interrupt_disable
	sw	a0,-28(s0)
	.loc 2 521 34
	lla	a3,pin_irq_hdr_tab
	lw	a4,-20(s0)
	mv	a5,a4
	slli	a5,a5,1
	add	a5,a5,a4
	slli	a5,a5,2
	add	a5,a3,a5
	lh	a4,0(a5)
	.loc 2 521 8
	li	a5,-1
	bne	a4,a5,.L53
	.loc 2 523 9
	lw	a0,-28(s0)
	call	rt_hw_interrupt_enable
	.loc 2 524 16
	li	a5,0
	j	.L50
.L53:
	.loc 2 526 35
	lla	a3,pin_irq_hdr_tab
	lw	a4,-20(s0)
	mv	a5,a4
	slli	a5,a5,1
	add	a5,a5,a4
	slli	a5,a5,2
	add	a5,a3,a5
	li	a4,-1
	sh	a4,0(a5)
	.loc 2 527 35
	lla	a3,pin_irq_hdr_tab
	lw	a4,-20(s0)
	mv	a5,a4
	slli	a5,a5,1
	add	a5,a5,a4
	slli	a5,a5,2
	add	a5,a3,a5
	sw	zero,4(a5)
	.loc 2 528 36
	lla	a3,pin_irq_hdr_tab
	lw	a4,-20(s0)
	mv	a5,a4
	slli	a5,a5,1
	add	a5,a5,a4
	slli	a5,a5,2
	add	a5,a3,a5
	sh	zero,2(a5)
	.loc 2 529 36
	lla	a3,pin_irq_hdr_tab
	lw	a4,-20(s0)
	mv	a5,a4
	slli	a5,a5,1
	add	a5,a5,a4
	slli	a5,a5,2
	add	a5,a3,a5
	sw	zero,8(a5)
	.loc 2 530 5
	lw	a0,-28(s0)
	call	rt_hw_interrupt_enable
	.loc 2 531 12
	li	a5,0
.L50:
	.loc 2 532 1
	mv	a0,a5
	lw	ra,44(sp)
	.cfi_restore 1
	lw	s0,40(sp)
	.cfi_restore 8
	addi	sp,sp,48
	.cfi_def_cfa_register 2
	jr	ra
	.cfi_endproc
.LFE47:
	.size	ch32_pin_dettach_irq, .-ch32_pin_dettach_irq
	.align	1
	.globl	ch32_pin_irq_enable
	.type	ch32_pin_irq_enable, @function
ch32_pin_irq_enable:
.LFB48:
	.loc 2 536 1
	.cfi_startproc
	addi	sp,sp,-80
	.cfi_def_cfa_offset 80
	sw	ra,76(sp)
	sw	s0,72(sp)
	.cfi_offset 1, -4
	.cfi_offset 8, -8
	addi	s0,sp,80
	.cfi_def_cfa 8, 0
	sw	a0,-68(s0)
	sw	a1,-72(s0)
	sw	a2,-76(s0)
	.loc 2 540 16
	li	a5,-1
	sw	a5,-20(s0)
	.loc 2 544 13
	lw	a5,-72(s0)
	andi	a5,a5,0xff
	mv	a0,a5
	call	get_pin
	sw	a0,-24(s0)
	.loc 2 545 8
	lw	a5,-24(s0)
	bnez	a5,.L55
	.loc 2 547 16
	li	a5,6
	j	.L67
.L55:
	.loc 2 549 8
	lw	a4,-76(s0)
	li	a5,1
	bne	a4,a5,.L57
	.loc 2 551 20
	lw	a5,-24(s0)
	lw	a5,12(a5)
	mv	a0,a5
	call	bit2bitno
	sw	a0,-20(s0)
	.loc 2 552 12
	lw	a5,-20(s0)
	bltz	a5,.L58
	.loc 2 552 38 discriminator 1
	lw	a4,-20(s0)
	.loc 2 552 26 discriminator 1
	li	a5,15
	bleu	a4,a5,.L59
.L58:
	.loc 2 554 20
	li	a5,6
	j	.L67
.L59:
	.loc 2 556 17
	call	rt_hw_interrupt_disable
	sw	a0,-28(s0)
	.loc 2 557 38
	lla	a3,pin_irq_hdr_tab
	lw	a4,-20(s0)
	mv	a5,a4
	slli	a5,a5,1
	add	a5,a5,a4
	slli	a5,a5,2
	add	a5,a3,a5
	lh	a4,0(a5)
	.loc 2 557 12
	li	a5,-1
	bne	a4,a5,.L60
	.loc 2 559 13
	lw	a0,-28(s0)
	call	rt_hw_interrupt_enable
	.loc 2 560 20
	li	a5,6
	j	.L67
.L60:
	.loc 2 562 16
	lw	a5,-20(s0)
	slli	a4,a5,3
	lla	a5,pin_irq_map
	add	a5,a4,a5
	sw	a5,-32(s0)
	.loc 2 564 14
	lw	a5,-24(s0)
	lw	a5,4(a5)
	.loc 2 564 9
	jalr	a5
.LVL1:
	.loc 2 565 9
	li	a1,1
	li	a0,1
	call	RCC_APB2PeriphClockCmd
	.loc 2 568 41
	lw	a5,-24(s0)
	lw	a5,12(a5)
	.loc 2 568 34
	slli	a5,a5,16
	srli	a5,a5,16
	sh	a5,-44(s0)
	.loc 2 569 36
	li	a5,3
	sw	a5,-40(s0)
	.loc 2 571 43
	lw	a5,-24(s0)
	lw	a5,12(a5)
	.loc 2 571 37
	sw	a5,-60(s0)
	.loc 2 572 38
	sw	zero,-56(s0)
	.loc 2 573 41
	li	a5,1
	sw	a5,-48(s0)
	.loc 2 574 42
	lla	a3,pin_irq_hdr_tab
	lw	a4,-20(s0)
	mv	a5,a4
	slli	a5,a5,1
	add	a5,a5,a4
	slli	a5,a5,2
	add	a5,a3,a5
	lhu	a5,2(a5)
	li	a4,1
	beq	a5,a4,.L61
	li	a4,2
	beq	a5,a4,.L62
	bnez	a5,.L63
	.loc 2 577 39
	li	a5,40
	sw	a5,-36(s0)
	.loc 2 578 45
	li	a5,8
	sw	a5,-52(s0)
	.loc 2 579 13
	j	.L63
.L61:
	.loc 2 581 39
	li	a5,72
	sw	a5,-36(s0)
	.loc 2 582 45
	li	a5,12
	sw	a5,-52(s0)
	.loc 2 583 13
	j	.L63
.L62:
	.loc 2 585 39
	li	a5,4
	sw	a5,-36(s0)
	.loc 2 586 45
	li	a5,16
	sw	a5,-52(s0)
	.loc 2 587 13
	nop
.L63:
	.loc 2 590 9
	lw	a5,-24(s0)
	lw	a5,8(a5)
	addi	a4,s0,-44
	mv	a1,a4
	mv	a0,a5
	call	GPIO_Init
	.loc 2 591 9
	addi	a5,s0,-60
	mv	a0,a5
	call	EXTI_Init
	.loc 2 592 9
	lw	a5,-32(s0)
	lw	a5,4(a5)
	li	a1,80
	mv	a0,a5
	call	NVIC_SetPriority
	.loc 2 593 9
	lw	a5,-32(s0)
	lw	a5,4(a5)
	mv	a0,a5
	call	NVIC_EnableIRQ
	.loc 2 595 9
	lw	a0,-28(s0)
	call	rt_hw_interrupt_enable
	j	.L64
.L57:
	.loc 2 597 13
	lw	a5,-76(s0)
	bnez	a5,.L65
	.loc 2 599 18
	lw	a5,-24(s0)
	lw	a5,12(a5)
	mv	a0,a5
	call	get_pin_irq_map
	sw	a0,-32(s0)
	.loc 2 600 12
	lw	a5,-32(s0)
	bnez	a5,.L66
	.loc 2 602 20
	li	a5,6
	j	.L67
.L66:
	.loc 2 604 9
	lw	a5,-32(s0)
	lw	a5,4(a5)
	mv	a0,a5
	call	NVIC_DisableIRQ
	j	.L64
.L65:
	.loc 2 608 16
	li	a5,6
	j	.L67
.L64:
	.loc 2 610 12
	li	a5,0
.L67:
	.loc 2 611 1 discriminator 1
	mv	a0,a5
	lw	ra,76(sp)
	.cfi_restore 1
	lw	s0,72(sp)
	.cfi_restore 8
	addi	sp,sp,80
	.cfi_def_cfa_register 2
	jr	ra
	.cfi_endproc
.LFE48:
	.size	ch32_pin_irq_enable, .-ch32_pin_irq_enable
	.section	.rodata
	.align	2
	.type	_ch32_pin_ops, @object
	.size	_ch32_pin_ops, 28
_ch32_pin_ops:
	.word	ch32_pin_mode
	.word	ch32_pin_write
	.word	ch32_pin_read
	.word	ch32_pin_attach_irq
	.word	ch32_pin_dettach_irq
	.word	ch32_pin_irq_enable
	.zero	4
	.align	2
.LC1:
	.string	"pin"
	.text
	.align	1
	.globl	rt_hw_pin_init
	.type	rt_hw_pin_init, @function
rt_hw_pin_init:
.LFB49:
	.loc 2 624 1
	.cfi_startproc
	addi	sp,sp,-32
	.cfi_def_cfa_offset 32
	sw	ra,28(sp)
	sw	s0,24(sp)
	.cfi_offset 1, -4
	.cfi_offset 8, -8
	addi	s0,sp,32
	.cfi_def_cfa 8, 0
	.loc 2 626 14
	li	a2,0
	lla	a1,_ch32_pin_ops
	lla	a0,.LC1
	call	rt_device_pin_register
	sw	a0,-20(s0)
	.loc 2 627 12
	lw	a5,-20(s0)
	.loc 2 628 1
	mv	a0,a5
	lw	ra,28(sp)
	.cfi_restore 1
	lw	s0,24(sp)
	.cfi_restore 8
	addi	sp,sp,32
	.cfi_def_cfa_register 2
	jr	ra
	.cfi_endproc
.LFE49:
	.size	rt_hw_pin_init, .-rt_hw_pin_init
	.globl	__rt_init_rt_hw_pin_init
	.section	.rti_fn.1,"a"
	.align	2
	.type	__rt_init_rt_hw_pin_init, @object
	.size	__rt_init_rt_hw_pin_init, 4
__rt_init_rt_hw_pin_init:
	.word	rt_hw_pin_init
	.text
	.align	1
	.type	pin_irq_hdr, @function
pin_irq_hdr:
.LFB50:
	.loc 2 632 1
	.cfi_startproc
	addi	sp,sp,-32
	.cfi_def_cfa_offset 32
	sw	ra,28(sp)
	sw	s0,24(sp)
	.cfi_offset 1, -4
	.cfi_offset 8, -8
	addi	s0,sp,32
	.cfi_def_cfa 8, 0
	sw	a0,-20(s0)
	.loc 2 633 31
	lla	a3,pin_irq_hdr_tab
	lw	a4,-20(s0)
	mv	a5,a4
	slli	a5,a5,1
	add	a5,a5,a4
	slli	a5,a5,2
	add	a5,a3,a5
	lw	a5,4(a5)
	.loc 2 633 8
	beqz	a5,.L72
	.loc 2 635 31
	lla	a3,pin_irq_hdr_tab
	lw	a4,-20(s0)
	mv	a5,a4
	slli	a5,a5,1
	add	a5,a5,a4
	slli	a5,a5,2
	add	a5,a3,a5
	lw	a2,4(a5)
	.loc 2 635 9
	lla	a3,pin_irq_hdr_tab
	lw	a4,-20(s0)
	mv	a5,a4
	slli	a5,a5,1
	add	a5,a5,a4
	slli	a5,a5,2
	add	a5,a3,a5
	lw	a5,8(a5)
	mv	a0,a5
	jalr	a2
.LVL2:
.L72:
	.loc 2 637 1
	nop
	lw	ra,28(sp)
	.cfi_restore 1
	lw	s0,24(sp)
	.cfi_restore 8
	addi	sp,sp,32
	.cfi_def_cfa_register 2
	jr	ra
	.cfi_endproc
.LFE50:
	.size	pin_irq_hdr, .-pin_irq_hdr
	.align	1
	.globl	HAL_GPIO_EXTI_Callback
	.type	HAL_GPIO_EXTI_Callback, @function
HAL_GPIO_EXTI_Callback:
.LFB51:
	.loc 2 640 1
	.cfi_startproc
	addi	sp,sp,-32
	.cfi_def_cfa_offset 32
	sw	ra,28(sp)
	sw	s0,24(sp)
	.cfi_offset 1, -4
	.cfi_offset 8, -8
	addi	s0,sp,32
	.cfi_def_cfa 8, 0
	mv	a5,a0
	sh	a5,-18(s0)
	.loc 2 641 17
	lhu	a5,-18(s0)
	mv	a0,a5
	call	bit2bitno
	mv	a5,a0
	.loc 2 641 5
	mv	a0,a5
	call	pin_irq_hdr
	.loc 2 642 1
	nop
	lw	ra,28(sp)
	.cfi_restore 1
	lw	s0,24(sp)
	.cfi_restore 8
	addi	sp,sp,32
	.cfi_def_cfa_register 2
	jr	ra
	.cfi_endproc
.LFE51:
	.size	HAL_GPIO_EXTI_Callback, .-HAL_GPIO_EXTI_Callback
	.align	1
	.globl	EXTI0_IRQHandler
	.type	EXTI0_IRQHandler, @function
EXTI0_IRQHandler:
.LFB52:
	.loc 2 653 1
	.cfi_startproc
	addi	sp,sp,-80
	.cfi_def_cfa_offset 80
	sw	ra,76(sp)
	sw	t0,72(sp)
	sw	t1,68(sp)
	sw	t2,64(sp)
	sw	s0,60(sp)
	sw	a0,56(sp)
	sw	a1,52(sp)
	sw	a2,48(sp)
	sw	a3,44(sp)
	sw	a4,40(sp)
	sw	a5,36(sp)
	sw	a6,32(sp)
	sw	a7,28(sp)
	sw	t3,24(sp)
	sw	t4,20(sp)
	sw	t5,16(sp)
	sw	t6,12(sp)
	.cfi_offset 1, -4
	.cfi_offset 5, -8
	.cfi_offset 6, -12
	.cfi_offset 7, -16
	.cfi_offset 8, -20
	.cfi_offset 10, -24
	.cfi_offset 11, -28
	.cfi_offset 12, -32
	.cfi_offset 13, -36
	.cfi_offset 14, -40
	.cfi_offset 15, -44
	.cfi_offset 16, -48
	.cfi_offset 17, -52
	.cfi_offset 28, -56
	.cfi_offset 29, -60
	.cfi_offset 30, -64
	.cfi_offset 31, -68
	addi	s0,sp,80
	.cfi_def_cfa 8, 0
	.loc 2 654 5
 #APP
# 654 "E:\RT-Thread\rt-thread\bsp\wch\risc-v\Libraries\ch32v2x_drivers\drv_gpio.c" 1
	csrrw sp,mscratch,sp
# 0 "" 2
	.loc 2 655 5
 #NO_APP
	call	rt_interrupt_enter
	.loc 2 657 8
	li	a0,1
	call	EXTI_GetITStatus
	mv	a5,a0
	.loc 2 657 7
	beqz	a5,.L75
	.loc 2 659 9
	li	a0,1
	call	HAL_GPIO_EXTI_Callback
	.loc 2 660 9
	li	a0,1
	call	EXTI_ClearITPendingBit
.L75:
	.loc 2 663 5
	call	rt_interrupt_leave
	.loc 2 664 5
 #APP
# 664 "E:\RT-Thread\rt-thread\bsp\wch\risc-v\Libraries\ch32v2x_drivers\drv_gpio.c" 1
	csrrw sp,mscratch,sp
# 0 "" 2
	.loc 2 665 1
 #NO_APP
	nop
	lw	ra,76(sp)
	.cfi_restore 1
	lw	t0,72(sp)
	.cfi_restore 5
	lw	t1,68(sp)
	.cfi_restore 6
	lw	t2,64(sp)
	.cfi_restore 7
	lw	s0,60(sp)
	.cfi_restore 8
	lw	a0,56(sp)
	.cfi_restore 10
	lw	a1,52(sp)
	.cfi_restore 11
	lw	a2,48(sp)
	.cfi_restore 12
	lw	a3,44(sp)
	.cfi_restore 13
	lw	a4,40(sp)
	.cfi_restore 14
	lw	a5,36(sp)
	.cfi_restore 15
	lw	a6,32(sp)
	.cfi_restore 16
	lw	a7,28(sp)
	.cfi_restore 17
	lw	t3,24(sp)
	.cfi_restore 28
	lw	t4,20(sp)
	.cfi_restore 29
	lw	t5,16(sp)
	.cfi_restore 30
	lw	t6,12(sp)
	.cfi_restore 31
	addi	sp,sp,80
	.cfi_def_cfa_register 2
	mret
	.cfi_endproc
.LFE52:
	.size	EXTI0_IRQHandler, .-EXTI0_IRQHandler
	.align	1
	.globl	EXTI1_IRQHandler
	.type	EXTI1_IRQHandler, @function
EXTI1_IRQHandler:
.LFB53:
	.loc 2 668 1
	.cfi_startproc
	addi	sp,sp,-80
	.cfi_def_cfa_offset 80
	sw	ra,76(sp)
	sw	t0,72(sp)
	sw	t1,68(sp)
	sw	t2,64(sp)
	sw	s0,60(sp)
	sw	a0,56(sp)
	sw	a1,52(sp)
	sw	a2,48(sp)
	sw	a3,44(sp)
	sw	a4,40(sp)
	sw	a5,36(sp)
	sw	a6,32(sp)
	sw	a7,28(sp)
	sw	t3,24(sp)
	sw	t4,20(sp)
	sw	t5,16(sp)
	sw	t6,12(sp)
	.cfi_offset 1, -4
	.cfi_offset 5, -8
	.cfi_offset 6, -12
	.cfi_offset 7, -16
	.cfi_offset 8, -20
	.cfi_offset 10, -24
	.cfi_offset 11, -28
	.cfi_offset 12, -32
	.cfi_offset 13, -36
	.cfi_offset 14, -40
	.cfi_offset 15, -44
	.cfi_offset 16, -48
	.cfi_offset 17, -52
	.cfi_offset 28, -56
	.cfi_offset 29, -60
	.cfi_offset 30, -64
	.cfi_offset 31, -68
	addi	s0,sp,80
	.cfi_def_cfa 8, 0
	.loc 2 669 5
 #APP
# 669 "E:\RT-Thread\rt-thread\bsp\wch\risc-v\Libraries\ch32v2x_drivers\drv_gpio.c" 1
	csrrw sp,mscratch,sp
# 0 "" 2
	.loc 2 670 5
 #NO_APP
	call	rt_interrupt_enter
	.loc 2 671 8
	li	a0,2
	call	EXTI_GetITStatus
	mv	a5,a0
	.loc 2 671 7
	beqz	a5,.L77
	.loc 2 673 9
	li	a0,2
	call	HAL_GPIO_EXTI_Callback
	.loc 2 674 9
	li	a0,2
	call	EXTI_ClearITPendingBit
.L77:
	.loc 2 676 5
	call	rt_interrupt_leave
	.loc 2 677 5
 #APP
# 677 "E:\RT-Thread\rt-thread\bsp\wch\risc-v\Libraries\ch32v2x_drivers\drv_gpio.c" 1
	csrrw sp,mscratch,sp
# 0 "" 2
	.loc 2 678 1
 #NO_APP
	nop
	lw	ra,76(sp)
	.cfi_restore 1
	lw	t0,72(sp)
	.cfi_restore 5
	lw	t1,68(sp)
	.cfi_restore 6
	lw	t2,64(sp)
	.cfi_restore 7
	lw	s0,60(sp)
	.cfi_restore 8
	lw	a0,56(sp)
	.cfi_restore 10
	lw	a1,52(sp)
	.cfi_restore 11
	lw	a2,48(sp)
	.cfi_restore 12
	lw	a3,44(sp)
	.cfi_restore 13
	lw	a4,40(sp)
	.cfi_restore 14
	lw	a5,36(sp)
	.cfi_restore 15
	lw	a6,32(sp)
	.cfi_restore 16
	lw	a7,28(sp)
	.cfi_restore 17
	lw	t3,24(sp)
	.cfi_restore 28
	lw	t4,20(sp)
	.cfi_restore 29
	lw	t5,16(sp)
	.cfi_restore 30
	lw	t6,12(sp)
	.cfi_restore 31
	addi	sp,sp,80
	.cfi_def_cfa_register 2
	mret
	.cfi_endproc
.LFE53:
	.size	EXTI1_IRQHandler, .-EXTI1_IRQHandler
	.align	1
	.globl	EXTI2_IRQHandler
	.type	EXTI2_IRQHandler, @function
EXTI2_IRQHandler:
.LFB54:
	.loc 2 681 1
	.cfi_startproc
	addi	sp,sp,-80
	.cfi_def_cfa_offset 80
	sw	ra,76(sp)
	sw	t0,72(sp)
	sw	t1,68(sp)
	sw	t2,64(sp)
	sw	s0,60(sp)
	sw	a0,56(sp)
	sw	a1,52(sp)
	sw	a2,48(sp)
	sw	a3,44(sp)
	sw	a4,40(sp)
	sw	a5,36(sp)
	sw	a6,32(sp)
	sw	a7,28(sp)
	sw	t3,24(sp)
	sw	t4,20(sp)
	sw	t5,16(sp)
	sw	t6,12(sp)
	.cfi_offset 1, -4
	.cfi_offset 5, -8
	.cfi_offset 6, -12
	.cfi_offset 7, -16
	.cfi_offset 8, -20
	.cfi_offset 10, -24
	.cfi_offset 11, -28
	.cfi_offset 12, -32
	.cfi_offset 13, -36
	.cfi_offset 14, -40
	.cfi_offset 15, -44
	.cfi_offset 16, -48
	.cfi_offset 17, -52
	.cfi_offset 28, -56
	.cfi_offset 29, -60
	.cfi_offset 30, -64
	.cfi_offset 31, -68
	addi	s0,sp,80
	.cfi_def_cfa 8, 0
	.loc 2 682 5
 #APP
# 682 "E:\RT-Thread\rt-thread\bsp\wch\risc-v\Libraries\ch32v2x_drivers\drv_gpio.c" 1
	csrrw sp,mscratch,sp
# 0 "" 2
	.loc 2 683 5
 #NO_APP
	call	rt_interrupt_enter
	.loc 2 684 8
	li	a0,4
	call	EXTI_GetITStatus
	mv	a5,a0
	.loc 2 684 7
	beqz	a5,.L79
	.loc 2 686 9
	li	a0,4
	call	HAL_GPIO_EXTI_Callback
	.loc 2 687 9
	li	a0,4
	call	EXTI_ClearITPendingBit
.L79:
	.loc 2 689 5
	call	rt_interrupt_leave
	.loc 2 690 5
 #APP
# 690 "E:\RT-Thread\rt-thread\bsp\wch\risc-v\Libraries\ch32v2x_drivers\drv_gpio.c" 1
	csrrw sp,mscratch,sp
# 0 "" 2
	.loc 2 691 1
 #NO_APP
	nop
	lw	ra,76(sp)
	.cfi_restore 1
	lw	t0,72(sp)
	.cfi_restore 5
	lw	t1,68(sp)
	.cfi_restore 6
	lw	t2,64(sp)
	.cfi_restore 7
	lw	s0,60(sp)
	.cfi_restore 8
	lw	a0,56(sp)
	.cfi_restore 10
	lw	a1,52(sp)
	.cfi_restore 11
	lw	a2,48(sp)
	.cfi_restore 12
	lw	a3,44(sp)
	.cfi_restore 13
	lw	a4,40(sp)
	.cfi_restore 14
	lw	a5,36(sp)
	.cfi_restore 15
	lw	a6,32(sp)
	.cfi_restore 16
	lw	a7,28(sp)
	.cfi_restore 17
	lw	t3,24(sp)
	.cfi_restore 28
	lw	t4,20(sp)
	.cfi_restore 29
	lw	t5,16(sp)
	.cfi_restore 30
	lw	t6,12(sp)
	.cfi_restore 31
	addi	sp,sp,80
	.cfi_def_cfa_register 2
	mret
	.cfi_endproc
.LFE54:
	.size	EXTI2_IRQHandler, .-EXTI2_IRQHandler
	.align	1
	.globl	EXTI3_IRQHandler
	.type	EXTI3_IRQHandler, @function
EXTI3_IRQHandler:
.LFB55:
	.loc 2 694 1
	.cfi_startproc
	addi	sp,sp,-80
	.cfi_def_cfa_offset 80
	sw	ra,76(sp)
	sw	t0,72(sp)
	sw	t1,68(sp)
	sw	t2,64(sp)
	sw	s0,60(sp)
	sw	a0,56(sp)
	sw	a1,52(sp)
	sw	a2,48(sp)
	sw	a3,44(sp)
	sw	a4,40(sp)
	sw	a5,36(sp)
	sw	a6,32(sp)
	sw	a7,28(sp)
	sw	t3,24(sp)
	sw	t4,20(sp)
	sw	t5,16(sp)
	sw	t6,12(sp)
	.cfi_offset 1, -4
	.cfi_offset 5, -8
	.cfi_offset 6, -12
	.cfi_offset 7, -16
	.cfi_offset 8, -20
	.cfi_offset 10, -24
	.cfi_offset 11, -28
	.cfi_offset 12, -32
	.cfi_offset 13, -36
	.cfi_offset 14, -40
	.cfi_offset 15, -44
	.cfi_offset 16, -48
	.cfi_offset 17, -52
	.cfi_offset 28, -56
	.cfi_offset 29, -60
	.cfi_offset 30, -64
	.cfi_offset 31, -68
	addi	s0,sp,80
	.cfi_def_cfa 8, 0
	.loc 2 695 5
 #APP
# 695 "E:\RT-Thread\rt-thread\bsp\wch\risc-v\Libraries\ch32v2x_drivers\drv_gpio.c" 1
	csrrw sp,mscratch,sp
# 0 "" 2
	.loc 2 696 5
 #NO_APP
	call	rt_interrupt_enter
	.loc 2 697 8
	li	a0,8
	call	EXTI_GetITStatus
	mv	a5,a0
	.loc 2 697 7
	beqz	a5,.L81
	.loc 2 699 9
	li	a0,8
	call	HAL_GPIO_EXTI_Callback
	.loc 2 700 9
	li	a0,8
	call	EXTI_ClearITPendingBit
.L81:
	.loc 2 702 5
	call	rt_interrupt_leave
	.loc 2 703 5
 #APP
# 703 "E:\RT-Thread\rt-thread\bsp\wch\risc-v\Libraries\ch32v2x_drivers\drv_gpio.c" 1
	csrrw sp,mscratch,sp
# 0 "" 2
	.loc 2 704 1
 #NO_APP
	nop
	lw	ra,76(sp)
	.cfi_restore 1
	lw	t0,72(sp)
	.cfi_restore 5
	lw	t1,68(sp)
	.cfi_restore 6
	lw	t2,64(sp)
	.cfi_restore 7
	lw	s0,60(sp)
	.cfi_restore 8
	lw	a0,56(sp)
	.cfi_restore 10
	lw	a1,52(sp)
	.cfi_restore 11
	lw	a2,48(sp)
	.cfi_restore 12
	lw	a3,44(sp)
	.cfi_restore 13
	lw	a4,40(sp)
	.cfi_restore 14
	lw	a5,36(sp)
	.cfi_restore 15
	lw	a6,32(sp)
	.cfi_restore 16
	lw	a7,28(sp)
	.cfi_restore 17
	lw	t3,24(sp)
	.cfi_restore 28
	lw	t4,20(sp)
	.cfi_restore 29
	lw	t5,16(sp)
	.cfi_restore 30
	lw	t6,12(sp)
	.cfi_restore 31
	addi	sp,sp,80
	.cfi_def_cfa_register 2
	mret
	.cfi_endproc
.LFE55:
	.size	EXTI3_IRQHandler, .-EXTI3_IRQHandler
	.align	1
	.globl	EXTI4_IRQHandler
	.type	EXTI4_IRQHandler, @function
EXTI4_IRQHandler:
.LFB56:
	.loc 2 707 1
	.cfi_startproc
	addi	sp,sp,-80
	.cfi_def_cfa_offset 80
	sw	ra,76(sp)
	sw	t0,72(sp)
	sw	t1,68(sp)
	sw	t2,64(sp)
	sw	s0,60(sp)
	sw	a0,56(sp)
	sw	a1,52(sp)
	sw	a2,48(sp)
	sw	a3,44(sp)
	sw	a4,40(sp)
	sw	a5,36(sp)
	sw	a6,32(sp)
	sw	a7,28(sp)
	sw	t3,24(sp)
	sw	t4,20(sp)
	sw	t5,16(sp)
	sw	t6,12(sp)
	.cfi_offset 1, -4
	.cfi_offset 5, -8
	.cfi_offset 6, -12
	.cfi_offset 7, -16
	.cfi_offset 8, -20
	.cfi_offset 10, -24
	.cfi_offset 11, -28
	.cfi_offset 12, -32
	.cfi_offset 13, -36
	.cfi_offset 14, -40
	.cfi_offset 15, -44
	.cfi_offset 16, -48
	.cfi_offset 17, -52
	.cfi_offset 28, -56
	.cfi_offset 29, -60
	.cfi_offset 30, -64
	.cfi_offset 31, -68
	addi	s0,sp,80
	.cfi_def_cfa 8, 0
	.loc 2 708 5
 #APP
# 708 "E:\RT-Thread\rt-thread\bsp\wch\risc-v\Libraries\ch32v2x_drivers\drv_gpio.c" 1
	csrrw sp,mscratch,sp
# 0 "" 2
	.loc 2 709 5
 #NO_APP
	call	rt_interrupt_enter
	.loc 2 710 8
	li	a0,16
	call	EXTI_GetITStatus
	mv	a5,a0
	.loc 2 710 7
	beqz	a5,.L83
	.loc 2 712 9
	li	a0,16
	call	HAL_GPIO_EXTI_Callback
	.loc 2 713 9
	li	a0,16
	call	EXTI_ClearITPendingBit
.L83:
	.loc 2 715 5
	call	rt_interrupt_leave
	.loc 2 716 5
 #APP
# 716 "E:\RT-Thread\rt-thread\bsp\wch\risc-v\Libraries\ch32v2x_drivers\drv_gpio.c" 1
	csrrw sp,mscratch,sp
# 0 "" 2
	.loc 2 717 1
 #NO_APP
	nop
	lw	ra,76(sp)
	.cfi_restore 1
	lw	t0,72(sp)
	.cfi_restore 5
	lw	t1,68(sp)
	.cfi_restore 6
	lw	t2,64(sp)
	.cfi_restore 7
	lw	s0,60(sp)
	.cfi_restore 8
	lw	a0,56(sp)
	.cfi_restore 10
	lw	a1,52(sp)
	.cfi_restore 11
	lw	a2,48(sp)
	.cfi_restore 12
	lw	a3,44(sp)
	.cfi_restore 13
	lw	a4,40(sp)
	.cfi_restore 14
	lw	a5,36(sp)
	.cfi_restore 15
	lw	a6,32(sp)
	.cfi_restore 16
	lw	a7,28(sp)
	.cfi_restore 17
	lw	t3,24(sp)
	.cfi_restore 28
	lw	t4,20(sp)
	.cfi_restore 29
	lw	t5,16(sp)
	.cfi_restore 30
	lw	t6,12(sp)
	.cfi_restore 31
	addi	sp,sp,80
	.cfi_def_cfa_register 2
	mret
	.cfi_endproc
.LFE56:
	.size	EXTI4_IRQHandler, .-EXTI4_IRQHandler
	.align	1
	.globl	EXTI9_5_IRQHandler
	.type	EXTI9_5_IRQHandler, @function
EXTI9_5_IRQHandler:
.LFB57:
	.loc 2 720 1
	.cfi_startproc
	addi	sp,sp,-80
	.cfi_def_cfa_offset 80
	sw	ra,76(sp)
	sw	t0,72(sp)
	sw	t1,68(sp)
	sw	t2,64(sp)
	sw	s0,60(sp)
	sw	a0,56(sp)
	sw	a1,52(sp)
	sw	a2,48(sp)
	sw	a3,44(sp)
	sw	a4,40(sp)
	sw	a5,36(sp)
	sw	a6,32(sp)
	sw	a7,28(sp)
	sw	t3,24(sp)
	sw	t4,20(sp)
	sw	t5,16(sp)
	sw	t6,12(sp)
	.cfi_offset 1, -4
	.cfi_offset 5, -8
	.cfi_offset 6, -12
	.cfi_offset 7, -16
	.cfi_offset 8, -20
	.cfi_offset 10, -24
	.cfi_offset 11, -28
	.cfi_offset 12, -32
	.cfi_offset 13, -36
	.cfi_offset 14, -40
	.cfi_offset 15, -44
	.cfi_offset 16, -48
	.cfi_offset 17, -52
	.cfi_offset 28, -56
	.cfi_offset 29, -60
	.cfi_offset 30, -64
	.cfi_offset 31, -68
	addi	s0,sp,80
	.cfi_def_cfa 8, 0
	.loc 2 721 5
 #APP
# 721 "E:\RT-Thread\rt-thread\bsp\wch\risc-v\Libraries\ch32v2x_drivers\drv_gpio.c" 1
	csrrw sp,mscratch,sp
# 0 "" 2
	.loc 2 722 5
 #NO_APP
	call	rt_interrupt_enter
	.loc 2 723 10
	li	a0,32
	call	EXTI_GetITStatus
	mv	a5,a0
	.loc 2 723 7
	bnez	a5,.L85
	.loc 2 724 10 discriminator 1
	li	a0,64
	call	EXTI_GetITStatus
	mv	a5,a0
	.loc 2 723 55 discriminator 1
	bnez	a5,.L85
	.loc 2 725 10
	li	a0,128
	call	EXTI_GetITStatus
	mv	a5,a0
	.loc 2 724 55
	bnez	a5,.L85
	.loc 2 726 10
	li	a0,256
	call	EXTI_GetITStatus
	mv	a5,a0
	.loc 2 725 55
	bnez	a5,.L85
	.loc 2 727 10
	li	a0,512
	call	EXTI_GetITStatus
	mv	a5,a0
	.loc 2 726 55
	beqz	a5,.L86
.L85:
	.loc 2 729 5
	li	a0,32
	call	HAL_GPIO_EXTI_Callback
	.loc 2 730 5
	li	a0,64
	call	HAL_GPIO_EXTI_Callback
	.loc 2 731 5
	li	a0,128
	call	HAL_GPIO_EXTI_Callback
	.loc 2 732 5
	li	a0,256
	call	HAL_GPIO_EXTI_Callback
	.loc 2 733 5
	li	a0,512
	call	HAL_GPIO_EXTI_Callback
	.loc 2 734 5
	li	a0,992
	call	EXTI_ClearITPendingBit
.L86:
	.loc 2 736 5
	call	rt_interrupt_leave
	.loc 2 737 5
 #APP
# 737 "E:\RT-Thread\rt-thread\bsp\wch\risc-v\Libraries\ch32v2x_drivers\drv_gpio.c" 1
	csrrw sp,mscratch,sp
# 0 "" 2
	.loc 2 738 1
 #NO_APP
	nop
	lw	ra,76(sp)
	.cfi_restore 1
	lw	t0,72(sp)
	.cfi_restore 5
	lw	t1,68(sp)
	.cfi_restore 6
	lw	t2,64(sp)
	.cfi_restore 7
	lw	s0,60(sp)
	.cfi_restore 8
	lw	a0,56(sp)
	.cfi_restore 10
	lw	a1,52(sp)
	.cfi_restore 11
	lw	a2,48(sp)
	.cfi_restore 12
	lw	a3,44(sp)
	.cfi_restore 13
	lw	a4,40(sp)
	.cfi_restore 14
	lw	a5,36(sp)
	.cfi_restore 15
	lw	a6,32(sp)
	.cfi_restore 16
	lw	a7,28(sp)
	.cfi_restore 17
	lw	t3,24(sp)
	.cfi_restore 28
	lw	t4,20(sp)
	.cfi_restore 29
	lw	t5,16(sp)
	.cfi_restore 30
	lw	t6,12(sp)
	.cfi_restore 31
	addi	sp,sp,80
	.cfi_def_cfa_register 2
	mret
	.cfi_endproc
.LFE57:
	.size	EXTI9_5_IRQHandler, .-EXTI9_5_IRQHandler
.Letext0:
	.file 3 "d:\\rt-threadstudio\\repo\\extract\\toolchain_support_packages\\wch\\risc-v-gcc-wch\\8.2.0\\riscv-none-embed\\include\\machine\\_default_types.h"
	.file 4 "d:\\rt-threadstudio\\repo\\extract\\toolchain_support_packages\\wch\\risc-v-gcc-wch\\8.2.0\\riscv-none-embed\\include\\sys\\_stdint.h"
	.file 5 "d:\\rt-threadstudio\\repo\\extract\\toolchain_support_packages\\wch\\risc-v-gcc-wch\\8.2.0\\lib\\gcc\\riscv-none-embed\\8.2.0\\include\\stddef.h"
	.file 6 "d:\\rt-threadstudio\\repo\\extract\\toolchain_support_packages\\wch\\risc-v-gcc-wch\\8.2.0\\riscv-none-embed\\include\\sys\\lock.h"
	.file 7 "d:\\rt-threadstudio\\repo\\extract\\toolchain_support_packages\\wch\\risc-v-gcc-wch\\8.2.0\\riscv-none-embed\\include\\sys\\_types.h"
	.file 8 "E:\\RT-Thread\\rt-thread\\include/rtdef.h"
	.file 9 "E:\\RT-Thread\\rt-thread\\components\\finsh/finsh.h"
	.file 10 "E:\\RT-Thread\\rt-thread\\components\\drivers\\include/drivers/pin.h"
	.file 11 "E:\\RT-Thread\\rt-thread\\bsp\\wch\\risc-v\\Libraries\\ch32v20x_libraries\\ch32v208_hal\\include/ch32v20x.h"
	.file 12 "E:\\RT-Thread\\rt-thread\\bsp\\wch\\risc-v\\Libraries\\ch32v20x_libraries\\bmsis\\include/system_ch32v20x.h"
	.file 13 "E:\\RT-Thread\\rt-thread\\bsp\\wch\\risc-v\\Libraries\\ch32v20x_libraries\\ch32v208_hal\\include/ch32v20x_exti.h"
	.file 14 "E:\\RT-Thread\\rt-thread\\bsp\\wch\\risc-v\\Libraries\\ch32v20x_libraries\\ch32v208_hal\\include/ch32v20x_gpio.h"
	.file 15 "d:\\rt-threadstudio\\repo\\extract\\toolchain_support_packages\\wch\\risc-v-gcc-wch\\8.2.0\\riscv-none-embed\\include\\sys\\reent.h"
	.file 16 "board/board.h"